(dp0
VServer
p1
Vcmsweb.cern.ch
p2
sVPort
p3
V
p4
sVRequestName
p5
V241217_211804:fnenna_crab_MCRun4_DsTau3Mu_private
p6
sVvoRole
p7
VNULL
p8
sVvoGroup
p9
g4
sVinstance
p10
Vprod
p11
sVOriginalConfig
p12
ccopy_reg
_reconstructor
p13
(cWMCore.Configuration
Configuration
p14
c__builtin__
object
p15
Ntp16
Rp17
(dp18
V_internal_sections
p19
(lp20
VGeneral
p21
aVJobType
p22
aVData
p23
aVSite
p24
aVUser
p25
aVDebug
p26
asg21
g13
(cWMCore.Configuration
ConfigSection
p27
g15
Ntp28
Rp29
(dp30
V_internal_documentation
p31
g4
sV_internal_name
p32
g21
sV_internal_settings
p33
c__builtin__
set
p34
((lp35
VtransferLogs
p36
aVrequestName
p37
aVtransferOutputs
p38
aVworkArea
p39
atp40
Rp41
sV_internal_docstrings
p42
(dp43
sV_internal_children
p44
g34
((lp45
tp46
Rp47
sV_internal_parent_ref
p48
NsV_internal_skipChecks
p49
I00
sg37
VMCRun4_DsTau3Mu_private
p50
sg39
Vcrab_projects
p51
sg38
I01
sg36
I00
sbsg22
g13
(g27
g15
Ntp52
Rp53
(dp54
g31
g4
sg32
g22
sg33
g34
((lp55
VallowUndistributedCMSSW
p56
aVpluginName
p57
aVpsetName
p58
atp59
Rp60
sg42
(dp61
sg44
g34
((lp62
tp63
Rp64
sg48
Nsg49
I00
sg57
VAnalysis
p65
sg58
V/lustrehome/felicenenna/tau3mu/CMSSW_14_0_17/src/GenAnalyser/GenAnalyzer/python/genAnalyser_cff.py
p66
sg56
I01
sbsg23
g13
(g27
g15
Ntp67
Rp68
(dp69
g31
g4
sg32
g23
sg33
g34
((lp70
VinputDataset
p71
aVsplitting
p72
aVoutputDatasetTag
p73
aVinputDBS
p74
aVunitsPerJob
p75
aVoutLFNDirBase
p76
atp77
Rp78
sg42
(dp79
sg44
g34
((lp80
tp81
Rp82
sg48
Nsg49
I00
sg71
V/DSTau3Mu_14TeV_Pythia8/jschulte-Phase2Spring24DIGIRECOMiniAOD-PU200_140X_mcRun4_realistic_v4_MiniAODTest_v1-515bee752741ef71814a39d75a17d442/USER
p83
sg74
Vphys03
p84
sg72
VFileBased
p85
sg75
I100
sg76
V/store/user/fnenna/
p86
sg73
VDsTau3mu_test_MCRun4
p87
sbsg24
g13
(g27
g15
Ntp88
Rp89
(dp90
g31
g4
sg32
g24
sg33
g34
((lp91
VignoreGlobalBlacklist
p92
aVstorageSite
p93
atp94
Rp95
sg42
(dp96
sg44
g34
((lp97
tp98
Rp99
sg48
Nsg49
I00
sg93
VT2_IT_Bari
p100
sg92
I01
sbsg25
g13
(g27
g15
Ntp101
Rp102
(dp103
g31
g4
sg32
g25
sg33
g34
((lp104
tp105
Rp106
sg42
(dp107
sg44
g34
((lp108
tp109
Rp110
sg48
Nsg49
I00
sbsg26
g13
(g27
g15
Ntp111
Rp112
(dp113
g31
g4
sg32
g26
sg33
g34
((lp114
tp115
Rp116
sg42
(dp117
sg44
g34
((lp118
tp119
Rp120
sg48
Nsg49
I00
sbsbs.